******************************************************************************
                  TI ARM Linker PC v20.2.7                     
******************************************************************************
>> Linked Tue Dec  9 11:08:11 2025

OUTPUT FILE NAME:   <Graduation_Project.out>
ENTRY POINT SYMBOL: "_c_int00_noargs"  address: 00002fbd


MEMORY CONFIGURATION

         name            origin    length      used     unused   attr    fill
----------------------  --------  ---------  --------  --------  ----  --------
  FLASH                 00000000   00040000  0000317e  0003ce82  R  X
  SRAM                  20000000   00008000  00000360  00007ca0  RW X


SEGMENT ALLOCATION MAP

run origin  load origin   length   init length attrs members
----------  ----------- ---------- ----------- ----- -------
00000000    00000000    00003180   00003180    r-x
  00000000    00000000    0000026c   0000026c    r-- .intvecs
  0000026c    0000026c    00002dc2   00002dc2    r-x .text
  00003030    00003030    00000110   00000110    r-- .const
  00003140    00003140    00000040   00000040    r-- .cinit
20000000    20000000    00000360   00000000    rw-
  20000000    20000000    00000200   00000000    rw- .stack
  20000200    20000200    00000120   00000000    rw- .bss
  20000320    20000320    00000040   00000000    rw- .data


SECTION ALLOCATION MAP

 output                                  attributes/
section   page    origin      length       input sections
--------  ----  ----------  ----------   ----------------
.intvecs   0    00000000    0000026c     
                  00000000    0000026c     tm4c123gh6pm_startup_ccs.obj (.intvecs)

.text      0    0000026c    00002dc2     
                  0000026c    00000d60     GPIO.obj (.text)
                  00000fcc    00000c60     main_qei_test.obj (.text)
                  00001c2c    00000648     UART.obj (.text)
                  00002274    00000538     QEI.obj (.text)
                  000027ac    000003d8     MCU.obj (.text)
                  00002b84    00000274     Det.obj (.text)
                  00002df8    0000009c     rtsv7M4_T_le_v4SPD16_eabi.lib : memcpy_t2.asm.obj (.text)
                  00002e94    0000007a                                   : memset_t2.asm.obj (.text)
                  00002f0e    00000068                                   : copy_decompress_lzss.c.obj (.text:decompress:lzss:__TI_decompress_lzss)
                  00002f76    00000002     --HOLE-- [fill = 0]
                  00002f78    00000044                                   : autoinit.c.obj (.text:__TI_auto_init_nobinit_nopinit:__TI_auto_init_nobinit_nopinit)
                  00002fbc    00000034                                   : boot_cortex_m.c.obj (.text:_c_int00_noargs:_c_int00_noargs)
                  00002ff0    0000001c                                   : copy_zero_init.c.obj (.text:decompress:ZI:__TI_zero_init_nomemset:__TI_zero_init_nomemset)
                  0000300c    0000000e                                   : copy_decompress_none.c.obj (.text:decompress:none:__TI_decompress_none)
                  0000301a    0000000c     tm4c123gh6pm_startup_ccs.obj (.text)
                  00003026    00000004     rtsv7M4_T_le_v4SPD16_eabi.lib : pre_init.c.obj (.text:_system_pre_init)
                  0000302a    00000004                                   : exit.c.obj (.text:abort:abort)

.const     0    00003030    00000110     
                  00003030    000000a5     Gpio_PBCfg.obj (.const:Gpio_PinConfigurations)
                  000030d5    00000003     --HOLE-- [fill = 0]
                  000030d8    00000024     QEI_PBCfg.obj (.const:Qei_Config)
                  000030fc    00000020     UART.obj (.const:Uart_BaseAddress)
                  0000311c    00000018     Uart_PBCfg.obj (.const:Uart0_Config_115200)
                  00003134    00000008     Gpio_PBCfg.obj (.const:Gpio_Configuration)
                  0000313c    00000004     Mcu_PBcfg.obj (.const:Mcu_Config_80MHz)

.cinit     0    00003140    00000040     
                  00003140    00000017     (.cinit..data.load) [load image, compression = lzss]
                  00003157    00000001     --HOLE-- [fill = 0]
                  00003158    0000000c     (__TI_handler_table)
                  00003164    00000004     --HOLE-- [fill = 0]
                  00003168    00000008     (.cinit..bss.load) [load image, compression = zero_init]
                  00003170    00000010     (__TI_cinit_table)

.init_array 
*          0    00000000    00000000     UNINITIALIZED

.bss       0    20000200    00000120     UNINITIALIZED
                  20000200    000000c0     Det.obj (.bss:Det_ErrorBuffer)
                  200002c0    00000060     UART.obj (.bss:Uart_RuntimeState)

.data      0    20000320    00000040     UNINITIALIZED
                  20000320    0000000d     MCU.obj (.data)
                  2000032d    00000003     --HOLE--
                  20000330    0000000c     Det.obj (.data)
                  2000033c    00000009     GPIO.obj (.data)
                  20000345    00000003     --HOLE--
                  20000348    00000009     main_qei_test.obj (.data)
                  20000351    00000003     --HOLE--
                  20000354    00000005     QEI.obj (.data)
                  20000359    00000003     --HOLE--
                  2000035c    00000004     Mcu_PBcfg.obj (.data)

.stack     0    20000000    00000200     UNINITIALIZED
                  20000000    00000004     rtsv7M4_T_le_v4SPD16_eabi.lib : boot_cortex_m.c.obj (.stack)
                  20000004    000001fc     --HOLE--

__llvm_prf_cnts 
*          0    20000000    00000000     UNINITIALIZED

MODULE SUMMARY

       Module                         code    ro data   rw data
       ------                         ----    -------   -------
    .\
       main_qei_test.obj              3168    0         9      
       tm4c123gh6pm_startup_ccs.obj   12      620       0      
    +--+------------------------------+-------+---------+---------+
       Total:                         3180    620       9      
                                                               
    .\CONFIG\
       Det.obj                        628     0         204    
    +--+------------------------------+-------+---------+---------+
       Total:                         628     0         204    
                                                               
    .\MCAL\GPIO\
       GPIO.obj                       3424    0         9      
       Gpio_PBCfg.obj                 0       173       0      
    +--+------------------------------+-------+---------+---------+
       Total:                         3424    173       9      
                                                               
    .\MCAL\MCU\
       MCU.obj                        984     0         13     
       Mcu_PBcfg.obj                  0       4         4      
    +--+------------------------------+-------+---------+---------+
       Total:                         984     4         17     
                                                               
    .\MCAL\QEI\
       QEI.obj                        1336    0         5      
       QEI_PBCfg.obj                  0       36        0      
    +--+------------------------------+-------+---------+---------+
       Total:                         1336    36        5      
                                                               
    .\MCAL\UART\
       UART.obj                       1608    32        96     
       Uart_PBCfg.obj                 0       24        0      
    +--+------------------------------+-------+---------+---------+
       Total:                         1608    56        96     
                                                               
    C:\ti\ccs1281\ccs\tools\compiler\ti-cgt-arm_20.2.7.LTS\lib\rtsv7M4_T_le_v4SPD16_eabi.lib
       memcpy_t2.asm.obj              156     0         0      
       memset_t2.asm.obj              122     0         0      
       copy_decompress_lzss.c.obj     104     0         0      
       autoinit.c.obj                 68      0         0      
       boot_cortex_m.c.obj            52      0         0      
       copy_zero_init.c.obj           28      0         0      
       copy_decompress_none.c.obj     14      0         0      
       exit.c.obj                     4       0         0      
       pre_init.c.obj                 4       0         0      
    +--+------------------------------+-------+---------+---------+
       Total:                         552     0         0      
                                                               
       Stack:                         0       0         512    
       Linker Generated:              0       59        0      
    +--+------------------------------+-------+---------+---------+
       Grand Total:                   11712   948       852    


LINKER GENERATED COPY TABLES

__TI_cinit_table @ 00003170 records: 2, size/record: 8, table size: 16
	.data: load addr=00003140, load size=00000017 bytes, run addr=20000320, run size=00000040 bytes, compression=lzss
	.bss: load addr=00003168, load size=00000008 bytes, run addr=20000200, run size=00000120 bytes, compression=zero_init


LINKER GENERATED HANDLER TABLE

__TI_handler_table @ 00003158 records: 3, size/record: 4, table size: 12
	index: 0, handler: __TI_decompress_lzss
	index: 1, handler: __TI_decompress_none
	index: 2, handler: __TI_zero_init


GLOBAL SYMBOLS: SORTED ALPHABETICALLY BY Name 

address   name                          
-------   ----                          
0000302b  C$$EXIT                       
00002d7f  Det_ClearErrorBuffer          
00002c2b  Det_DeInit                    
00002db1  Det_GetErrorCount             
00002d09  Det_GetErrorReport            
00002ccb  Det_GetVersionInfo            
00002bef  Det_Init                      
00002c6f  Det_ReportError               
00002db7  Det_SetCallback               
00000ee5  Gpio_ClearInterrupt           
00003134  Gpio_Configuration            
00000e7b  Gpio_DisableInterrupt         
00000e15  Gpio_EnableInterrupt          
00000af1  Gpio_FlipChannel              
00000f51  Gpio_GetInterruptStatus       
00000b99  Gpio_GetVersionInfo           
000008c9  Gpio_Init                     
0000094d  Gpio_ReadChannel              
00000d25  Gpio_ReadChannelGroup         
00000a4f  Gpio_ReadPort                 
00000c61  Gpio_RefreshPortDirection     
00000bd9  Gpio_SetPinDirection          
000009cb  Gpio_WriteChannel             
00000d97  Gpio_WriteChannelGroup        
00000aa7  Gpio_WritePort                
2000035c  Mcu_ConfigPtr                 
0000313c  Mcu_Config_80MHz              
00002955  Mcu_DisablePeripheralClock    
000027f7  Mcu_DistributePllClock        
00002917  Mcu_EnablePeripheralClock     
00002831  Mcu_GetPllStatus              
0000289d  Mcu_GetResetRawValue          
0000284b  Mcu_GetResetReason            
00002907  Mcu_GetSystemClock            
000027ad  Mcu_Init                      
000027cf  Mcu_InitClock                 
000028ad  Mcu_PerformReset              
000028b5  Mcu_SetMode                   
00001003  PrintTestHeader               
00001029  PrintTestResult               
00000fcd  QEI0_Handler                  
000026e9  Qei_ClearInterrupt            
000030d8  Qei_Config                    
00002591  Qei_DeInit                    
000026b7  Qei_DisableInterrupt          
00002685  Qei_EnableInterrupt           
00002721  Qei_GetDirection              
000025d3  Qei_GetPosition               
00002715  Qei_GetStatus                 
00002643  Qei_GetVelocity               
00002759  Qei_GetVersionInfo            
000024f9  Qei_Init                      
00002791  Qei_Qei0Handler               
0000279b  Qei_Qei1Handler               
000025fd  Qei_SetPosition               
0000301b  ResetISR                      
00001109  ResetTestVariables            
00000fdf  SimpleDelay                   
00001123  SimulateEncoderRotation       
0000155f  Test_Qei_DeInit               
00001225  Test_Qei_Direction            
0000112f  Test_Qei_Init                 
00001369  Test_Qei_InterruptControl     
000013c1  Test_Qei_MultipleReads        
00001451  Test_Qei_PositionIncrement    
0000115f  Test_Qei_PositionRead         
000011ab  Test_Qei_PositionSet          
0000129b  Test_Qei_PositionWrap         
000014ed  Test_Qei_Status               
00001265  Test_Qei_Velocity             
00000fdd  Timer2A_Handler               
0000311c  Uart0_Config_115200           
00001e7f  Uart_DeInit                   
0000217f  Uart_GetStatus                
00002239  Uart_GetVersionInfo           
00001ce3  Uart_Init                     
00002201  Uart_IsRxDataAvailable        
000021c9  Uart_IsTxFifoEmpty            
00001f9d  Uart_ReceiveByte              
000020dd  Uart_SendBuffer               
00001f25  Uart_SendByte                 
00001065  Uart_SendInt                  
00002041  Uart_SendString               
20000200  __STACK_END                   
00000200  __STACK_SIZE                  
20000200  __STACK_TOP                   
00003170  __TI_CINIT_Base               
00003180  __TI_CINIT_Limit              
00003158  __TI_Handler_Table_Base       
00003164  __TI_Handler_Table_Limit      
00002f79  __TI_auto_init_nobinit_nopinit
00002f0f  __TI_decompress_lzss          
0000300d  __TI_decompress_none          
ffffffff  __TI_pprof_out_hndl           
ffffffff  __TI_prof_data_size           
ffffffff  __TI_prof_data_start          
00000000  __TI_static_base__            
00002ff1  __TI_zero_init_nomemset       
00002e95  __aeabi_memclr                
00002e95  __aeabi_memclr4               
00002e95  __aeabi_memclr8               
00002df9  __aeabi_memcpy                
00002df9  __aeabi_memcpy4               
00002df9  __aeabi_memcpy8               
00002e97  __aeabi_memset                
00002e97  __aeabi_memset4               
00002e97  __aeabi_memset8               
ffffffff  __binit__                     
ffffffff  __c_args__                    
UNDEFED   __mpu_init                    
20000000  __stack                       
20000000  __start___llvm_prf_cnts       
20000000  __stop___llvm_prf_cnts        
00002fbd  _c_int00_noargs               
UNDEFED   _system_post_cinit            
00003027  _system_pre_init              
0000302b  abort                         
ffffffff  binit                         
20000349  directionInterruptFired       
2000034a  errorInterruptFired           
00000000  g_pfnVectors                  
20000348  indexInterruptFired           
2000034c  interruptCount                
20000350  lastDirection                 
000016d9  main                          
00002df9  memcpy                        
00002e9d  memset                        


GLOBAL SYMBOLS: SORTED BY Symbol Address 

address   name                          
-------   ----                          
00000000  __TI_static_base__            
00000000  g_pfnVectors                  
00000200  __STACK_SIZE                  
000008c9  Gpio_Init                     
0000094d  Gpio_ReadChannel              
000009cb  Gpio_WriteChannel             
00000a4f  Gpio_ReadPort                 
00000aa7  Gpio_WritePort                
00000af1  Gpio_FlipChannel              
00000b99  Gpio_GetVersionInfo           
00000bd9  Gpio_SetPinDirection          
00000c61  Gpio_RefreshPortDirection     
00000d25  Gpio_ReadChannelGroup         
00000d97  Gpio_WriteChannelGroup        
00000e15  Gpio_EnableInterrupt          
00000e7b  Gpio_DisableInterrupt         
00000ee5  Gpio_ClearInterrupt           
00000f51  Gpio_GetInterruptStatus       
00000fcd  QEI0_Handler                  
00000fdd  Timer2A_Handler               
00000fdf  SimpleDelay                   
00001003  PrintTestHeader               
00001029  PrintTestResult               
00001065  Uart_SendInt                  
00001109  ResetTestVariables            
00001123  SimulateEncoderRotation       
0000112f  Test_Qei_Init                 
0000115f  Test_Qei_PositionRead         
000011ab  Test_Qei_PositionSet          
00001225  Test_Qei_Direction            
00001265  Test_Qei_Velocity             
0000129b  Test_Qei_PositionWrap         
00001369  Test_Qei_InterruptControl     
000013c1  Test_Qei_MultipleReads        
00001451  Test_Qei_PositionIncrement    
000014ed  Test_Qei_Status               
0000155f  Test_Qei_DeInit               
000016d9  main                          
00001ce3  Uart_Init                     
00001e7f  Uart_DeInit                   
00001f25  Uart_SendByte                 
00001f9d  Uart_ReceiveByte              
00002041  Uart_SendString               
000020dd  Uart_SendBuffer               
0000217f  Uart_GetStatus                
000021c9  Uart_IsTxFifoEmpty            
00002201  Uart_IsRxDataAvailable        
00002239  Uart_GetVersionInfo           
000024f9  Qei_Init                      
00002591  Qei_DeInit                    
000025d3  Qei_GetPosition               
000025fd  Qei_SetPosition               
00002643  Qei_GetVelocity               
00002685  Qei_EnableInterrupt           
000026b7  Qei_DisableInterrupt          
000026e9  Qei_ClearInterrupt            
00002715  Qei_GetStatus                 
00002721  Qei_GetDirection              
00002759  Qei_GetVersionInfo            
00002791  Qei_Qei0Handler               
0000279b  Qei_Qei1Handler               
000027ad  Mcu_Init                      
000027cf  Mcu_InitClock                 
000027f7  Mcu_DistributePllClock        
00002831  Mcu_GetPllStatus              
0000284b  Mcu_GetResetReason            
0000289d  Mcu_GetResetRawValue          
000028ad  Mcu_PerformReset              
000028b5  Mcu_SetMode                   
00002907  Mcu_GetSystemClock            
00002917  Mcu_EnablePeripheralClock     
00002955  Mcu_DisablePeripheralClock    
00002bef  Det_Init                      
00002c2b  Det_DeInit                    
00002c6f  Det_ReportError               
00002ccb  Det_GetVersionInfo            
00002d09  Det_GetErrorReport            
00002d7f  Det_ClearErrorBuffer          
00002db1  Det_GetErrorCount             
00002db7  Det_SetCallback               
00002df9  __aeabi_memcpy                
00002df9  __aeabi_memcpy4               
00002df9  __aeabi_memcpy8               
00002df9  memcpy                        
00002e95  __aeabi_memclr                
00002e95  __aeabi_memclr4               
00002e95  __aeabi_memclr8               
00002e97  __aeabi_memset                
00002e97  __aeabi_memset4               
00002e97  __aeabi_memset8               
00002e9d  memset                        
00002f0f  __TI_decompress_lzss          
00002f79  __TI_auto_init_nobinit_nopinit
00002fbd  _c_int00_noargs               
00002ff1  __TI_zero_init_nomemset       
0000300d  __TI_decompress_none          
0000301b  ResetISR                      
00003027  _system_pre_init              
0000302b  C$$EXIT                       
0000302b  abort                         
000030d8  Qei_Config                    
0000311c  Uart0_Config_115200           
00003134  Gpio_Configuration            
0000313c  Mcu_Config_80MHz              
00003158  __TI_Handler_Table_Base       
00003164  __TI_Handler_Table_Limit      
00003170  __TI_CINIT_Base               
00003180  __TI_CINIT_Limit              
20000000  __stack                       
20000000  __start___llvm_prf_cnts       
20000000  __stop___llvm_prf_cnts        
20000200  __STACK_END                   
20000200  __STACK_TOP                   
20000348  indexInterruptFired           
20000349  directionInterruptFired       
2000034a  errorInterruptFired           
2000034c  interruptCount                
20000350  lastDirection                 
2000035c  Mcu_ConfigPtr                 
ffffffff  __TI_pprof_out_hndl           
ffffffff  __TI_prof_data_size           
ffffffff  __TI_prof_data_start          
ffffffff  __binit__                     
ffffffff  __c_args__                    
ffffffff  binit                         
UNDEFED   __mpu_init                    
UNDEFED   _system_post_cinit            

[127 symbols]
